target datalayout = "e-m:e-p270:32:32-p271:32:32-p272:64:64-i64:64-i128:128-f80:128-n8:16:32:64-S128"
target triple = "x86_64-pc-linux-gnu"

%struct.AVFormatContext = type { ptr, ptr, ptr, ptr, ptr, i32, i32, ptr, i32, ptr, i32, ptr, ptr, i64, i64, i64, i32, i32, i32, i64, i64, ptr, i32, i32, ptr, i32, i32, i32, i32, ptr, i64, i32, i32, %struct.AVIOInterruptCB, i32, i32, i32, i32, i64, i32, i32, i32, i32, i32, i32, i32, i32, i32, i32, i32, i32, i64, i32, i32, i32, i32, i32, ptr, ptr, ptr, ptr, i32, ptr, ptr, ptr, ptr, i32, ptr, ptr, i64, ptr, ptr, ptr, i64 }
%struct.AVIOInterruptCB = type { ptr, ptr }
%struct.AVStream = type { ptr, i32, i32, ptr, ptr, %struct.AVRational, i64, i64, i64, i32, i32, %struct.AVRational, ptr, %struct.AVRational, %struct.AVPacket, i32, %struct.AVRational, i32 }
%struct.AVPacket = type { ptr, i64, i64, ptr, i32, i32, i32, ptr, i32, i64, i64, ptr, ptr, %struct.AVRational }
%struct.AVRational = type { i32, i32 }
%struct.AVCodecParameters = type { i32, i32, i32, ptr, i32, ptr, i32, i32, i64, i32, i32, i32, i32, i32, i32, %struct.AVRational, %struct.AVRational, i32, i32, i32, i32, i32, i32, i32, %struct.AVChannelLayout, i32, i32, i32, i32, i32, i32 }
%struct.AVChannelLayout = type { i32, i32, %union.anon, ptr }
%union.anon = type { i64 }

; Function Attrs: nounwind uwtable
define internal i32 @sol_codec_type(i32 noundef %0, i32 noundef %1) #0 {
  %3 = alloca i32, align 4
  %4 = alloca i32, align 4
  %5 = alloca i32, align 4
  store i32 %0, ptr %4, align 4, !tbaa !34
  store i32 %1, ptr %5, align 4, !tbaa !34
  %6 = load i32, ptr %4, align 4, !tbaa !34
  %7 = icmp eq i32 %6, 2957
  br i1 %7, label %8, label %9

8:                                                ; preds = %2
  store i32 1, ptr %3, align 4
  br label %24

9:                                                ; preds = %2
  %10 = load i32, ptr %5, align 4, !tbaa !34
  %11 = and i32 %10, 1
  %12 = icmp ne i32 %11, 0
  br i1 %12, label %13, label %23

13:                                               ; preds = %9
  %14 = load i32, ptr %5, align 4, !tbaa !34
  %15 = and i32 %14, 4
  %16 = icmp ne i32 %15, 0
  br i1 %16, label %17, label %18

17:                                               ; preds = %13
  store i32 3, ptr %3, align 4
  br label %24

18:                                               ; preds = %13
  %19 = load i32, ptr %4, align 4, !tbaa !34
  %20 = icmp eq i32 %19, 3213
  br i1 %20, label %21, label %22

21:                                               ; preds = %18
  store i32 1, ptr %3, align 4
  br label %24

22:                                               ; preds = %18
  store i32 2, ptr %3, align 4
  br label %24

23:                                               ; preds = %9
  store i32 -1, ptr %3, align 4
  br label %24

24:                                               ; preds = %23, %22, %21, %17, %8
  %25 = load i32, ptr %3, align 4
  ret i32 %25
}

; Function Attrs: nounwind uwtable
define internal i32 @sol_channels(i32 noundef %0, i32 noundef %1) #0 {
  %3 = alloca i32, align 4
  %4 = alloca i32, align 4
  %5 = alloca i32, align 4
  store i32 %0, ptr %4, align 4, !tbaa !34
  store i32 %1, ptr %5, align 4, !tbaa !34
  %6 = load i32, ptr %4, align 4, !tbaa !34
  %7 = icmp eq i32 %6, 2957
  br i1 %7, label %12, label %8

8:                                                ; preds = %2
  %9 = load i32, ptr %5, align 4, !tbaa !34
  %10 = and i32 %9, 16
  %11 = icmp ne i32 %10, 0
  br i1 %11, label %13, label %12

12:                                               ; preds = %8, %2
  store i32 1, ptr %3, align 4
  br label %14

13:                                               ; preds = %8
  store i32 2, ptr %3, align 4
  br label %14

14:                                               ; preds = %13, %12
  %15 = load i32, ptr %3, align 4
  ret i32 %15
}

; Function Attrs: nounwind uwtable
define internal i32 @sol_codec_id(i32 noundef %0, i32 noundef %1) #0 {
  %3 = alloca i32, align 4
  %4 = alloca i32, align 4
  %5 = alloca i32, align 4
  store i32 %0, ptr %4, align 4, !tbaa !34
  store i32 %1, ptr %5, align 4, !tbaa !34
  %6 = load i32, ptr %5, align 4, !tbaa !34
  %7 = and i32 %6, 1
  %8 = icmp ne i32 %7, 0
  br i1 %8, label %9, label %10

9:                                                ; preds = %2
  store i32 81923, ptr %3, align 4
  br label %20

10:                                               ; preds = %2
  %11 = load i32, ptr %4, align 4, !tbaa !34
  %12 = icmp eq i32 %11, 2957
  br i1 %12, label %13, label %14

13:                                               ; preds = %10
  store i32 65541, ptr %3, align 4
  br label %20

14:                                               ; preds = %10
  %15 = load i32, ptr %5, align 4, !tbaa !34
  %16 = and i32 %15, 4
  %17 = icmp ne i32 %16, 0
  br i1 %17, label %18, label %19

18:                                               ; preds = %14
  store i32 65536, ptr %3, align 4
  br label %20

19:                                               ; preds = %14
  store i32 65541, ptr %3, align 4
  br label %20

20:                                               ; preds = %19, %18, %13, %9
  %21 = load i32, ptr %3, align 4
  ret i32 %21
}

; Function Attrs: nounwind uwtable
define internal i32 @sol_read_header(ptr noundef %0) #0 {
  %2 = alloca i32, align 4
  %3 = alloca ptr, align 8
  %4 = alloca i32, align 4
  %5 = alloca i32, align 4
  %6 = alloca ptr, align 8
  %7 = alloca i32, align 4
  %8 = alloca i32, align 4
  %9 = alloca i32, align 4
  %10 = alloca i32, align 4
  %11 = alloca i32, align 4
  %12 = alloca ptr, align 8
  %13 = alloca i32, align 4
  store ptr %0, ptr %3, align 8, !tbaa !16
  call void @llvm.lifetime.start.p0(i64 4, ptr %4) #3
  call void @llvm.lifetime.start.p0(i64 4, ptr %5) #3
  call void @llvm.lifetime.start.p0(i64 8, ptr %6) #3
  %14 = load ptr, ptr %3, align 8, !tbaa !16
  %15 = getelementptr inbounds nuw %struct.AVFormatContext, ptr %14, i32 0, i32 4
  %16 = load ptr, ptr %15, align 8, !tbaa !18
  store ptr %16, ptr %6, align 8, !tbaa !33
  call void @llvm.lifetime.start.p0(i64 4, ptr %7) #3
  call void @llvm.lifetime.start.p0(i64 4, ptr %8) #3
  call void @llvm.lifetime.start.p0(i64 4, ptr %9) #3
  call void @llvm.lifetime.start.p0(i64 4, ptr %10) #3
  call void @llvm.lifetime.start.p0(i64 4, ptr %11) #3
  call void @llvm.lifetime.start.p0(i64 8, ptr %12) #3
  %17 = load ptr, ptr %6, align 8, !tbaa !33
  %18 = call i32 @avio_rl16(ptr noundef %17)
  store i32 %18, ptr %4, align 4, !tbaa !34
  %19 = load ptr, ptr %6, align 8, !tbaa !33
  %20 = call i32 @avio_rl32(ptr noundef %19)
  store i32 %20, ptr %5, align 4, !tbaa !34
  %21 = load i32, ptr %5, align 4, !tbaa !34
  %22 = icmp ne i32 %21, 5001043
  br i1 %22, label %23, label %24

23:                                               ; preds = %1
  store i32 -1, ptr %2, align 4
  store i32 1, ptr %13, align 4
  br label %83

24:                                               ; preds = %1
  %25 = load ptr, ptr %6, align 8, !tbaa !33
  %26 = call i32 @avio_rl16(ptr noundef %25)
  store i32 %26, ptr %9, align 4, !tbaa !34
  %27 = load ptr, ptr %6, align 8, !tbaa !33
  %28 = call i32 @avio_r8(ptr noundef %27)
  store i32 %28, ptr %10, align 4, !tbaa !34
  %29 = load ptr, ptr %6, align 8, !tbaa !33
  %30 = call i64 @avio_skip(ptr noundef %29, i64 noundef 4)
  %31 = load i32, ptr %4, align 4, !tbaa !34
  %32 = icmp ne i32 %31, 2957
  br i1 %32, label %33, label %36

33:                                               ; preds = %24
  %34 = load ptr, ptr %6, align 8, !tbaa !33
  %35 = call i32 @avio_r8(ptr noundef %34)
  br label %36

36:                                               ; preds = %33, %24
  %37 = load i32, ptr %4, align 4, !tbaa !34
  %38 = load i32, ptr %10, align 4, !tbaa !34
  %39 = call i32 @sol_codec_id(i32 noundef %37, i32 noundef %38)
  store i32 %39, ptr %11, align 4, !tbaa !34
  %40 = load i32, ptr %4, align 4, !tbaa !34
  %41 = load i32, ptr %10, align 4, !tbaa !34
  %42 = call i32 @sol_channels(i32 noundef %40, i32 noundef %41)
  store i32 %42, ptr %8, align 4, !tbaa !34
  %43 = load i32, ptr %11, align 4, !tbaa !34
  %44 = icmp eq i32 %43, 81923
  br i1 %44, label %45, label %49

45:                                               ; preds = %36
  %46 = load i32, ptr %4, align 4, !tbaa !34
  %47 = load i32, ptr %10, align 4, !tbaa !34
  %48 = call i32 @sol_codec_type(i32 noundef %46, i32 noundef %47)
  store i32 %48, ptr %7, align 4, !tbaa !34
  br label %50

49:                                               ; preds = %36
  store i32 0, ptr %7, align 4, !tbaa !34
  br label %50

50:                                               ; preds = %49, %45
  %51 = load ptr, ptr %3, align 8, !tbaa !16
  %52 = call ptr @avformat_new_stream(ptr noundef %51, ptr noundef null)
  store ptr %52, ptr %12, align 8, !tbaa !35
  %53 = load ptr, ptr %12, align 8, !tbaa !35
  %54 = icmp ne ptr %53, null
  br i1 %54, label %56, label %55

55:                                               ; preds = %50
  store i32 -1, ptr %2, align 4
  store i32 1, ptr %13, align 4
  br label %83

56:                                               ; preds = %50
  %57 = load ptr, ptr %12, align 8, !tbaa !35
  %58 = getelementptr inbounds nuw %struct.AVStream, ptr %57, i32 0, i32 3
  %59 = load ptr, ptr %58, align 8, !tbaa !37
  %60 = getelementptr inbounds nuw %struct.AVCodecParameters, ptr %59, i32 0, i32 0
  store i32 1, ptr %60, align 8, !tbaa !44
  %61 = load i32, ptr %7, align 4, !tbaa !34
  %62 = load ptr, ptr %12, align 8, !tbaa !35
  %63 = getelementptr inbounds nuw %struct.AVStream, ptr %62, i32 0, i32 3
  %64 = load ptr, ptr %63, align 8, !tbaa !37
  %65 = getelementptr inbounds nuw %struct.AVCodecParameters, ptr %64, i32 0, i32 2
  store i32 %61, ptr %65, align 8, !tbaa !47
  %66 = load i32, ptr %11, align 4, !tbaa !34
  %67 = load ptr, ptr %12, align 8, !tbaa !35
  %68 = getelementptr inbounds nuw %struct.AVStream, ptr %67, i32 0, i32 3
  %69 = load ptr, ptr %68, align 8, !tbaa !37
  %70 = getelementptr inbounds nuw %struct.AVCodecParameters, ptr %69, i32 0, i32 1
  store i32 %66, ptr %70, align 4, !tbaa !48
  %71 = load ptr, ptr %12, align 8, !tbaa !35
  %72 = getelementptr inbounds nuw %struct.AVStream, ptr %71, i32 0, i32 3
  %73 = load ptr, ptr %72, align 8, !tbaa !37
  %74 = getelementptr inbounds nuw %struct.AVCodecParameters, ptr %73, i32 0, i32 24
  %75 = load i32, ptr %8, align 4, !tbaa !34
  call void @av_channel_layout_default(ptr noundef %74, i32 noundef %75)
  %76 = load i32, ptr %9, align 4, !tbaa !34
  %77 = load ptr, ptr %12, align 8, !tbaa !35
  %78 = getelementptr inbounds nuw %struct.AVStream, ptr %77, i32 0, i32 3
  %79 = load ptr, ptr %78, align 8, !tbaa !37
  %80 = getelementptr inbounds nuw %struct.AVCodecParameters, ptr %79, i32 0, i32 25
  store i32 %76, ptr %80, align 8, !tbaa !49
  %81 = load ptr, ptr %12, align 8, !tbaa !35
  %82 = load i32, ptr %9, align 4, !tbaa !34
  call void @avpriv_set_pts_info(ptr noundef %81, i32 noundef 64, i32 noundef 1, i32 noundef %82)
  store i32 0, ptr %2, align 4
  store i32 1, ptr %13, align 4
  br label %83

83:                                               ; preds = %56, %55, %23
  call void @llvm.lifetime.end.p0(i64 8, ptr %12) #3
  call void @llvm.lifetime.end.p0(i64 4, ptr %11) #3
  call void @llvm.lifetime.end.p0(i64 4, ptr %10) #3
  call void @llvm.lifetime.end.p0(i64 4, ptr %9) #3
  call void @llvm.lifetime.end.p0(i64 4, ptr %8) #3
  call void @llvm.lifetime.end.p0(i64 4, ptr %7) #3
  call void @llvm.lifetime.end.p0(i64 8, ptr %6) #3
  call void @llvm.lifetime.end.p0(i64 4, ptr %5) #3
  call void @llvm.lifetime.end.p0(i64 4, ptr %4) #3
  %84 = load i32, ptr %2, align 4
  ret i32 %84
}